; Function Attrs: cold noreturn nounwind uwtable
define dso_local void @boot_yyerror(ptr noundef readonly captures(none) %0, ptr noundef %1) local_unnamed_addr #3 {
  %3 = tail call zeroext i1 @errstart_cold(i32 noundef 21, ptr noundef null) #17
  tail call void @llvm.assume(i1 %3)
  %4 = getelementptr inbounds nuw i8, ptr %0, i64 40
  %5 = load ptr, ptr %4, align 8
  %6 = getelementptr inbounds nuw i8, ptr %0, i64 24
  %7 = load i64, ptr %6, align 8
  %8 = getelementptr inbounds nuw ptr, ptr %5, i64 %7
  %9 = load ptr, ptr %8, align 8
  %10 = getelementptr inbounds nuw i8, ptr %9, i64 44
  %11 = load i32, ptr %10, align 4
  %12 = tail call i32 (ptr, ...) @errmsg_internal(ptr noundef nonnull @.str.29, ptr noundef %1, i32 noundef %11) #15
  tail call void @errfinish(ptr noundef nonnull @.str.20, i32 noundef 137, ptr noundef nonnull @__func__.boot_yyerror) #15
  unreachable
}